(dp1
S'24'
p2
(lp3
F53.399999999999999
aF57.82
asS'25'
p4
(lp5
F52.469999999999999
aF56.850000000000001
asS'26'
p6
(lp7
F51.539999999999999
aF55.880000000000003
asS'27'
p8
(lp9
F50.609999999999999
aF54.909999999999997
asS'20'
p10
(lp11
F57.140000000000001
aF61.719999999999999
asS'21'
p12
(lp13
F56.200000000000003
aF60.75
asS'22'
p14
(lp15
F55.270000000000003
aF59.770000000000003
asS'23'
p16
(lp17
F54.329999999999998
aF58.799999999999997
asS'28'
p18
(lp19
F49.68
aF53.939999999999998
asS'29'
p20
(lp21
F48.75
aF52.969999999999999
asS'0'
(lp22
F76.280000000000001
aF81.049999999999997
asS'4'
(lp23
F72.849999999999994
aF77.549999999999997
asS'8'
(lp24
F68.900000000000006
aF73.579999999999998
asS'59'
p25
(lp26
F22.25
aF25.309999999999999
asS'58'
p27
(lp28
F23.030000000000001
aF26.16
asS'55'
p29
(lp30
F25.41
aF28.739999999999998
asS'54'
p31
(lp32
F26.23
aF29.620000000000001
asS'57'
p33
(lp34
F23.82
aF27.010000000000002
asS'56'
p35
(lp36
F24.609999999999999
aF27.879999999999999
asS'51'
p37
(lp38
F28.73
aF32.270000000000003
asS'50'
p39
(lp40
F29.579999999999998
aF33.159999999999997
asS'53'
p41
(lp42
F27.050000000000001
aF30.489999999999998
asS'52'
p43
(lp44
F27.890000000000001
aF31.379999999999999
asS'88'
p45
(lp46
F4.6799999999999997
aF5.5700000000000003
asS'89'
p47
(lp48
F4.3399999999999999
aF5.1699999999999999
asS'82'
p49
(lp50
F7.1900000000000004
aF8.4800000000000004
asS'83'
p51
(lp52
F6.7199999999999998
aF7.9400000000000004
asS'80'
p53
(lp54
F8.1999999999999993
aF9.6400000000000006
asS'81'
p55
(lp56
F7.6799999999999997
aF9.0500000000000007
asS'86'
p57
(lp58
F5.4299999999999997
aF6.4400000000000004
asS'87'
p59
(lp60
F5.04
aF5.9900000000000002
asS'84'
p61
(lp62
F6.2699999999999996
aF7.4199999999999999
asS'85'
p63
(lp64
F5.8399999999999999
aF6.9199999999999999
asS'3'
(lp65
F73.840000000000003
aF78.540000000000006
asS'7'
(lp66
F69.890000000000001
aF74.579999999999998
asS'100'
p67
(lp68
F2.1200000000000001
aF2.4500000000000002
asS'39'
p69
(lp70
F39.460000000000001
aF43.369999999999997
asS'38'
p71
(lp72
F40.380000000000003
aF44.329999999999998
asS'33'
p73
(lp74
F45.030000000000001
aF49.109999999999999
asS'32'
p75
(lp76
F45.960000000000001
aF50.079999999999998
asS'31'
p77
(lp78
F46.890000000000001
aF51.039999999999999
asS'30'
p79
(lp80
F47.82
aF52.009999999999998
asS'37'
p81
(lp82
F41.310000000000002
aF45.280000000000001
asS'36'
p83
(lp84
F42.240000000000002
aF46.229999999999997
asS'35'
p85
(lp86
F43.170000000000002
aF47.189999999999998
asS'34'
p87
(lp88
F44.100000000000001
aF48.149999999999999
asS'60'
p89
(lp90
F21.48
aF24.460000000000001
asS'61'
p91
(lp92
F20.719999999999999
aF23.620000000000001
asS'62'
p93
(lp94
F19.969999999999999
aF22.780000000000001
asS'63'
p95
(lp96
F19.219999999999999
aF21.949999999999999
asS'64'
p97
(lp98
F18.48
aF21.129999999999999
asS'65'
p99
(lp100
F17.75
aF20.32
asS'66'
p101
(lp102
F17.030000000000001
aF19.52
asS'67'
p103
(lp104
F16.32
aF18.73
asS'68'
p105
(lp106
F15.609999999999999
aF17.949999999999999
asS'69'
p107
(lp108
F14.92
aF17.18
asS'2'
(lp109
F74.819999999999993
aF79.519999999999996
asS'6'
(lp110
F70.879999999999995
aF75.569999999999993
asS'99'
p111
(lp112
F2.2400000000000002
aF2.6000000000000001
asS'98'
p113
(lp114
F2.3599999999999999
aF2.7599999999999998
asS'91'
p115
(lp116
F3.7400000000000002
aF4.4500000000000002
asS'90'
p117
(lp118
F4.0300000000000002
aF4.7999999999999998
asS'93'
p119
(lp120
F3.23
aF3.8399999999999999
asS'92'
p121
(lp122
F3.4700000000000002
aF4.1299999999999999
asS'95'
p123
(lp124
F2.8199999999999998
aF3.3399999999999999
asS'94'
p125
(lp126
F3.0099999999999998
aF3.5699999999999998
asS'97'
p127
(lp128
F2.4900000000000002
aF2.9300000000000002
asS'96'
p129
(lp130
F2.6400000000000001
aF3.1200000000000001
asS'11'
p131
(lp132
F65.920000000000002
aF70.599999999999994
asS'10'
p133
(lp134
F66.909999999999997
aF71.599999999999994
asS'13'
p135
(lp136
F63.93
aF68.620000000000005
asS'12'
p137
(lp138
F64.920000000000002
aF69.609999999999999
asS'15'
p139
(lp140
F61.960000000000001
aF66.640000000000001
asS'14'
p141
(lp142
F62.939999999999998
aF67.629999999999995
asS'17'
p143
(lp144
F60.020000000000003
aF64.670000000000002
asS'16'
p145
(lp146
F60.990000000000002
aF65.650000000000006
asS'19'
p147
(lp148
F58.090000000000003
aF62.700000000000003
asS'18'
p149
(lp150
F59.049999999999997
aF63.68
asS'48'
p151
(lp152
F31.32
aF34.969999999999999
asS'49'
p153
(lp154
F30.440000000000001
aF34.060000000000002
asS'46'
p155
(lp156
F33.079999999999998
aF36.810000000000002
asS'47'
p157
(lp158
F32.189999999999998
aF35.890000000000001
asS'44'
p159
(lp160
F34.880000000000003
aF38.659999999999997
asS'45'
p161
(lp162
F33.979999999999997
aF37.729999999999997
asS'42'
p163
(lp164
F36.700000000000003
aF40.539999999999999
asS'43'
p165
(lp166
F35.780000000000001
aF39.600000000000001
asS'40'
p167
(lp168
F38.530000000000001
aF42.43
asS'41'
p169
(lp170
F37.609999999999999
aF41.479999999999997
asS'1'
(lp171
F75.780000000000001
aF80.489999999999995
asS'5'
(lp172
F71.870000000000005
aF76.560000000000002
asS'9'
(lp173
F67.900000000000006
aF72.590000000000003
asS'77'
p174
(lp175
F9.8499999999999996
aF11.5
asS'76'
p176
(lp177
F10.43
aF12.16
asS'75'
p178
(lp179
F11.029999999999999
aF12.83
asS'74'
p180
(lp181
F11.65
aF13.529999999999999
asS'73'
p182
(lp183
F12.27
aF14.23
asS'72'
p184
(lp185
F12.92
aF14.949999999999999
asS'71'
p186
(lp187
F13.57
aF15.68
asS'70'
p188
(lp189
F14.24
aF16.43
asS'79'
p190
(lp191
F8.7300000000000004
aF10.24
asS'78'
p192
(lp193
F9.2799999999999994
aF10.859999999999999
as.